target datalayout = "e-m:e-p270:32:32-p271:32:32-p272:64:64-i64:64-i128:128-f80:128-n8:16:32:64-S128"
target triple = "x86_64-pc-linux-gnu"

%struct.CommonModeInfoParams = type { i32, i32, i32, i32, i32, ptr, i32, i32, i8, ptr, i32, i32, ptr, ptr, ptr, ptr }
%struct.cdef_list = type { i8, i8 }
%struct.MB_MODE_INFO = type <{ i8, i8, i8, i8, i32, [2 x %union.int_mv], [2 x i8], [2 x i8], %union.int_interpfilters, i8, i8, i8, i8, %struct.WarpedMotionParams, i8, i8, [6 x i8], %struct.INTERINTER_COMPOUND_DATA, [2 x i8], %struct.FILTER_INTRA_MODE_INFO, i8, i8, %struct.PALETTE_MODE_INFO, i8, i8, [16 x i8], i8, [4 x i8], i16, [7 x i8] }>
%union.int_mv = type { i32 }
%union.int_interpfilters = type { i32 }
%struct.WarpedMotionParams = type { [8 x i32], i16, i16, i16, i16, i8, i8 }
%struct.INTERINTER_COMPOUND_DATA = type { ptr, i8, i8, i8, i8 }
%struct.FILTER_INTRA_MODE_INFO = type { i8, i8 }
%struct.PALETTE_MODE_INFO = type { [24 x i16], [2 x i8] }

@mi_size_high = internal constant [22 x i8] c"\01\02\01\02\04\02\04\08\04\08\10\08\10 \10 \04\01\08\02\10\04", align 16
@mi_size_wide = internal constant [22 x i8] c"\01\01\02\02\02\04\04\04\08\08\08\10\10\10  \01\04\02\08\04\10", align 16

; Function Attrs: nounwind uwtable
define internal i32 @is_8x8_block_skip(ptr noundef %0, i32 noundef %1, i32 noundef %2, i32 noundef %3) #0 {
  %5 = alloca i32, align 4
  %6 = alloca ptr, align 8
  %7 = alloca i32, align 4
  %8 = alloca i32, align 4
  %9 = alloca i32, align 4
  %10 = alloca ptr, align 8
  %11 = alloca i32, align 4
  %12 = alloca i32, align 4
  store ptr %0, ptr %6, align 8
  store i32 %1, ptr %7, align 4
  store i32 %2, ptr %8, align 4
  store i32 %3, ptr %9, align 4
  %13 = load ptr, ptr %6, align 8
  %14 = load i32, ptr %7, align 4
  %15 = load i32, ptr %9, align 4
  %16 = mul nsw i32 %14, %15
  %17 = sext i32 %16 to i64
  %18 = getelementptr inbounds ptr, ptr %13, i64 %17
  %19 = load i32, ptr %8, align 4
  %20 = sext i32 %19 to i64
  %21 = getelementptr inbounds ptr, ptr %18, i64 %20
  store ptr %21, ptr %10, align 8
  store i32 0, ptr %11, align 4
  br label %22

22:                                               ; preds = %48, %4
  %23 = load i32, ptr %11, align 4
  %24 = load i8, ptr getelementptr inbounds ([22 x i8], ptr @mi_size_high, i64 0, i64 3), align 1
  %25 = zext i8 %24 to i32
  %26 = icmp slt i32 %23, %25
  br i1 %26, label %27, label %55

27:                                               ; preds = %22
  store i32 0, ptr %12, align 4
  br label %28

28:                                               ; preds = %44, %27
  %29 = load i32, ptr %12, align 4
  %30 = load i8, ptr getelementptr inbounds ([22 x i8], ptr @mi_size_wide, i64 0, i64 3), align 1
  %31 = zext i8 %30 to i32
  %32 = icmp slt i32 %29, %31
  br i1 %32, label %33, label %47

33:                                               ; preds = %28
  %34 = load ptr, ptr %10, align 8
  %35 = load i32, ptr %12, align 4
  %36 = sext i32 %35 to i64
  %37 = getelementptr inbounds ptr, ptr %34, i64 %36
  %38 = load ptr, ptr %37, align 8
  %39 = getelementptr inbounds nuw %struct.MB_MODE_INFO, ptr %38, i32 0, i32 23
  %40 = load i8, ptr %39, align 8
  %41 = icmp ne i8 %40, 0
  br i1 %41, label %43, label %42

42:                                               ; preds = %33
  store i32 0, ptr %5, align 4
  br label %56

43:                                               ; preds = %33
  br label %44

44:                                               ; preds = %43
  %45 = load i32, ptr %12, align 4
  %46 = add nsw i32 %45, 1
  store i32 %46, ptr %12, align 4
  br label %28, !llvm.loop !7

47:                                               ; preds = %28
  br label %48

48:                                               ; preds = %47
  %49 = load i32, ptr %11, align 4
  %50 = add nsw i32 %49, 1
  store i32 %50, ptr %11, align 4
  %51 = load i32, ptr %9, align 4
  %52 = load ptr, ptr %10, align 8
  %53 = sext i32 %51 to i64
  %54 = getelementptr inbounds ptr, ptr %52, i64 %53
  store ptr %54, ptr %10, align 8
  br label %22, !llvm.loop !8

55:                                               ; preds = %22
  store i32 1, ptr %5, align 4
  br label %56

56:                                               ; preds = %55, %42
  %57 = load i32, ptr %5, align 4
  ret i32 %57
}

; Function Attrs: nounwind uwtable
define hidden i32 @av1_cdef_compute_sb_list(ptr noundef %0, i32 noundef %1, i32 noundef %2, ptr noundef %3, i8 noundef zeroext %4) #0 {
  %6 = alloca ptr, align 8
  %7 = alloca i32, align 4
  %8 = alloca i32, align 4
  %9 = alloca ptr, align 8
  %10 = alloca i8, align 1
  %11 = alloca ptr, align 8
  %12 = alloca i32, align 4
  %13 = alloca i32, align 4
  %14 = alloca i32, align 4
  %15 = alloca i32, align 4
  %16 = alloca i32, align 4
  %17 = alloca i32, align 4
  %18 = alloca i32, align 4
  %19 = alloca i32, align 4
  %20 = alloca i32, align 4
  store ptr %0, ptr %6, align 8
  store i32 %1, ptr %7, align 4
  store i32 %2, ptr %8, align 4
  store ptr %3, ptr %9, align 8
  store i8 %4, ptr %10, align 1
  %21 = load ptr, ptr %6, align 8
  %22 = getelementptr inbounds nuw %struct.CommonModeInfoParams, ptr %21, i32 0, i32 9
  %23 = load ptr, ptr %22, align 8
  store ptr %23, ptr %11, align 8
  %24 = load ptr, ptr %6, align 8
  %25 = getelementptr inbounds nuw %struct.CommonModeInfoParams, ptr %24, i32 0, i32 4
  %26 = load i32, ptr %25, align 8
  %27 = load i32, ptr %8, align 4
  %28 = sub nsw i32 %26, %27
  store i32 %28, ptr %12, align 4
  %29 = load ptr, ptr %6, align 8
  %30 = getelementptr inbounds nuw %struct.CommonModeInfoParams, ptr %29, i32 0, i32 3
  %31 = load i32, ptr %30, align 4
  %32 = load i32, ptr %7, align 4
  %33 = sub nsw i32 %31, %32
  store i32 %33, ptr %13, align 4
  %34 = load i8, ptr %10, align 1
  %35 = zext i8 %34 to i32
  %36 = icmp eq i32 %35, 15
  br i1 %36, label %41, label %37

37:                                               ; preds = %5
  %38 = load i8, ptr %10, align 1
  %39 = zext i8 %38 to i32
  %40 = icmp eq i32 %39, 14
  br i1 %40, label %41, label %49

41:                                               ; preds = %37, %5
  %42 = load i32, ptr %12, align 4
  %43 = icmp slt i32 %42, 32
  br i1 %43, label %44, label %46

44:                                               ; preds = %41
  %45 = load i32, ptr %12, align 4
  br label %47

46:                                               ; preds = %41
  br label %47

47:                                               ; preds = %46, %44
  %48 = phi i32 [ %45, %44 ], [ 32, %46 ]
  store i32 %48, ptr %12, align 4
  br label %57

49:                                               ; preds = %37
  %50 = load i32, ptr %12, align 4
  %51 = icmp slt i32 %50, 16
  br i1 %51, label %52, label %54

52:                                               ; preds = %49
  %53 = load i32, ptr %12, align 4
  br label %55

54:                                               ; preds = %49
  br label %55

55:                                               ; preds = %54, %52
  %56 = phi i32 [ %53, %52 ], [ 16, %54 ]
  store i32 %56, ptr %12, align 4
  br label %57

57:                                               ; preds = %55, %47
  %58 = load i8, ptr %10, align 1
  %59 = zext i8 %58 to i32
  %60 = icmp eq i32 %59, 15
  br i1 %60, label %65, label %61

61:                                               ; preds = %57
  %62 = load i8, ptr %10, align 1
  %63 = zext i8 %62 to i32
  %64 = icmp eq i32 %63, 13
  br i1 %64, label %65, label %73

65:                                               ; preds = %61, %57
  %66 = load i32, ptr %13, align 4
  %67 = icmp slt i32 %66, 32
  br i1 %67, label %68, label %70

68:                                               ; preds = %65
  %69 = load i32, ptr %13, align 4
  br label %71

70:                                               ; preds = %65
  br label %71

71:                                               ; preds = %70, %68
  %72 = phi i32 [ %69, %68 ], [ 32, %70 ]
  store i32 %72, ptr %13, align 4
  br label %81

73:                                               ; preds = %61
  %74 = load i32, ptr %13, align 4
  %75 = icmp slt i32 %74, 16
  br i1 %75, label %76, label %78

76:                                               ; preds = %73
  %77 = load i32, ptr %13, align 4
  br label %79

78:                                               ; preds = %73
  br label %79

79:                                               ; preds = %78, %76
  %80 = phi i32 [ %77, %76 ], [ 16, %78 ]
  store i32 %80, ptr %13, align 4
  br label %81

81:                                               ; preds = %79, %71
  store i32 2, ptr %14, align 4
  store i32 2, ptr %15, align 4
  store i32 1, ptr %16, align 4
  store i32 1, ptr %17, align 4
  store i32 0, ptr %18, align 4
  store i32 0, ptr %19, align 4
  br label %82

82:                                               ; preds = %128, %81
  %83 = load i32, ptr %19, align 4
  %84 = load i32, ptr %13, align 4
  %85 = icmp slt i32 %83, %84
  br i1 %85, label %86, label %131

86:                                               ; preds = %82
  store i32 0, ptr %20, align 4
  br label %87

87:                                               ; preds = %124, %86
  %88 = load i32, ptr %20, align 4
  %89 = load i32, ptr %12, align 4
  %90 = icmp slt i32 %88, %89
  br i1 %90, label %91, label %127

91:                                               ; preds = %87
  %92 = load ptr, ptr %11, align 8
  %93 = load i32, ptr %7, align 4
  %94 = load i32, ptr %19, align 4
  %95 = add nsw i32 %93, %94
  %96 = load i32, ptr %8, align 4
  %97 = load i32, ptr %20, align 4
  %98 = add nsw i32 %96, %97
  %99 = load ptr, ptr %6, align 8
  %100 = getelementptr inbounds nuw %struct.CommonModeInfoParams, ptr %99, i32 0, i32 11
  %101 = load i32, ptr %100, align 4
  %102 = call i32 @is_8x8_block_skip(ptr noundef %92, i32 noundef %95, i32 noundef %98, i32 noundef %101)
  %103 = icmp ne i32 %102, 0
  br i1 %103, label %123, label %104

104:                                              ; preds = %91
  %105 = load i32, ptr %19, align 4
  %106 = ashr i32 %105, 1
  %107 = trunc i32 %106 to i8
  %108 = load ptr, ptr %9, align 8
  %109 = load i32, ptr %18, align 4
  %110 = sext i32 %109 to i64
  %111 = getelementptr inbounds %struct.cdef_list, ptr %108, i64 %110
  %112 = getelementptr inbounds nuw %struct.cdef_list, ptr %111, i32 0, i32 0
  store i8 %107, ptr %112, align 1
  %113 = load i32, ptr %20, align 4
  %114 = ashr i32 %113, 1
  %115 = trunc i32 %114 to i8
  %116 = load ptr, ptr %9, align 8
  %117 = load i32, ptr %18, align 4
  %118 = sext i32 %117 to i64
  %119 = getelementptr inbounds %struct.cdef_list, ptr %116, i64 %118
  %120 = getelementptr inbounds nuw %struct.cdef_list, ptr %119, i32 0, i32 1
  store i8 %115, ptr %120, align 1
  %121 = load i32, ptr %18, align 4
  %122 = add nsw i32 %121, 1
  store i32 %122, ptr %18, align 4
  br label %123

123:                                              ; preds = %104, %91
  br label %124

124:                                              ; preds = %123
  %125 = load i32, ptr %20, align 4
  %126 = add nsw i32 %125, 2
  store i32 %126, ptr %20, align 4
  br label %87, !llvm.loop !4

127:                                              ; preds = %87
  br label %128

128:                                              ; preds = %127
  %129 = load i32, ptr %19, align 4
  %130 = add nsw i32 %129, 2
  store i32 %130, ptr %19, align 4
  br label %82, !llvm.loop !6

131:                                              ; preds = %82
  %132 = load i32, ptr %18, align 4
  ret i32 %132
}