; Function Attrs: nofree norecurse nosync nounwind memory(read, argmem: readwrite, inaccessiblemem: none) uwtable
define hidden i32 @av1_cdef_compute_sb_list(ptr nocapture noundef readonly %0, i32 noundef %1, i32 noundef %2, ptr nocapture noundef writeonly %3, i8 noundef zeroext %4) local_unnamed_addr #0 {
  %6 = getelementptr inbounds nuw i8, ptr %0, i64 48
  %7 = load ptr, ptr %6, align 8
  %8 = getelementptr inbounds nuw i8, ptr %0, i64 16
  %9 = load i32, ptr %8, align 8
  %10 = sub nsw i32 %9, %2
  %11 = getelementptr inbounds nuw i8, ptr %0, i64 12
  %12 = load i32, ptr %11, align 4
  %13 = sub nsw i32 %12, %1
  %14 = and i8 %4, -2
  %or.cond = icmp eq i8 %14, 14
  br i1 %or.cond, label %15, label %17

15:                                               ; preds = %5
  %16 = tail call i32 @llvm.smin.i32(i32 %10, i32 32)
  br label %19

17:                                               ; preds = %5
  %18 = tail call i32 @llvm.smin.i32(i32 %10, i32 16)
  br label %19

19:                                               ; preds = %17, %15
  %.043 = phi i32 [ %16, %15 ], [ %18, %17 ]
  %20 = and i8 %4, -3
  %or.cond5 = icmp eq i8 %20, 13
  br i1 %or.cond5, label %21, label %23

21:                                               ; preds = %19
  %22 = tail call i32 @llvm.smin.i32(i32 %13, i32 32)
  br label %25

23:                                               ; preds = %19
  %24 = tail call i32 @llvm.smin.i32(i32 %13, i32 16)
  br label %25

25:                                               ; preds = %23, %21
  %.044 = phi i32 [ %22, %21 ], [ %24, %23 ]
  %26 = icmp sgt i32 %.044, 0
  br i1 %26, label %.preheader.lr.ph, label %._crit_edge51

.preheader.lr.ph:                                 ; preds = %25
  %27 = icmp sgt i32 %.043, 0
  %28 = getelementptr inbounds nuw i8, ptr %0, i64 60
  br i1 %27, label %.preheader.us.preheader, label %._crit_edge51

.preheader.us.preheader:                          ; preds = %.preheader.lr.ph
  %29 = sext i32 %2 to i64
  %30 = zext nneg i32 %.043 to i64
  br label %.preheader.us

.preheader.us:                                    ; preds = %.preheader.us.preheader, %._crit_edge.us
  %.04150.us = phi i32 [ %60, %._crit_edge.us ], [ 0, %.preheader.us.preheader ]
  %.04249.us = phi i32 [ %.2.us, %._crit_edge.us ], [ 0, %.preheader.us.preheader ]
  %31 = add nsw i32 %.04150.us, %1
  %32 = lshr exact i32 %.04150.us, 1
  %33 = trunc i32 %32 to i8
  br label %34

34:                                               ; preds = %.preheader.us, %is_8x8_block_skip.exit.us
  %indvars.iv = phi i64 [ 0, %.preheader.us ], [ %indvars.iv.next, %is_8x8_block_skip.exit.us ]
  %.147.us = phi i32 [ %.04249.us, %.preheader.us ], [ %.2.us, %is_8x8_block_skip.exit.us ]
  %35 = load i32, ptr %28, align 4
  %36 = mul nsw i32 %35, %31
  %37 = sext i32 %36 to i64
  %38 = getelementptr inbounds ptr, ptr %7, i64 %37
  %39 = getelementptr ptr, ptr %38, i64 %indvars.iv
  %40 = getelementptr ptr, ptr %39, i64 %29
  %41 = sext i32 %35 to i64
  br label %.preheader.i.us

.preheader.i.us:                                  ; preds = %50, %34
  %42 = phi i1 [ true, %34 ], [ false, %50 ]
  %.01317.i.us = phi ptr [ %40, %34 ], [ %51, %50 ]
  br label %43

43:                                               ; preds = %49, %.preheader.i.us
  %44 = phi i1 [ true, %.preheader.i.us ], [ false, %49 ]
  %indvars.iv.i.us = phi i64 [ 0, %.preheader.i.us ], [ 1, %49 ]
  %45 = getelementptr inbounds ptr, ptr %.01317.i.us, i64 %indvars.iv.i.us
  %46 = load ptr, ptr %45, align 8
  %47 = getelementptr inbounds nuw i8, ptr %46, i64 152
  %48 = load i8, ptr %47, align 8
  %.not.i.us = icmp eq i8 %48, 0
  br i1 %.not.i.us, label %52, label %49

49:                                               ; preds = %43
  br i1 %44, label %43, label %50, !llvm.loop !4

50:                                               ; preds = %49
  %51 = getelementptr inbounds ptr, ptr %.01317.i.us, i64 %41
  br i1 %42, label %.preheader.i.us, label %is_8x8_block_skip.exit.us, !llvm.loop !6

52:                                               ; preds = %43
  %53 = sext i32 %.147.us to i64
  %54 = getelementptr inbounds %struct.cdef_list, ptr %3, i64 %53
  store i8 %33, ptr %54, align 1
  %55 = lshr exact i64 %indvars.iv, 1
  %56 = trunc i64 %55 to i8
  %57 = getelementptr inbounds nuw i8, ptr %54, i64 1
  store i8 %56, ptr %57, align 1
  %58 = add nsw i32 %.147.us, 1
  br label %is_8x8_block_skip.exit.us

is_8x8_block_skip.exit.us:                        ; preds = %50, %52
  %.2.us = phi i32 [ %58, %52 ], [ %.147.us, %50 ]
  %indvars.iv.next = add nuw nsw i64 %indvars.iv, 2
  %59 = icmp ult i64 %indvars.iv.next, %30
  br i1 %59, label %34, label %._crit_edge.us, !llvm.loop !7

._crit_edge.us:                                   ; preds = %is_8x8_block_skip.exit.us
  %60 = add nuw nsw i32 %.04150.us, 2
  %61 = icmp slt i32 %60, %.044
  br i1 %61, label %.preheader.us, label %._crit_edge51, !llvm.loop !8

._crit_edge51:                                    ; preds = %._crit_edge.us, %.preheader.lr.ph, %25
  %.042.lcssa = phi i32 [ 0, %25 ], [ 0, %.preheader.lr.ph ], [ %.2.us, %._crit_edge.us ]
  ret i32 %.042.lcssa
}